target datalayout = "e-m:e-p270:32:32-p271:32:32-p272:64:64-i64:64-i128:128-f80:128-n8:16:32:64-S128"
target triple = "x86_64-unknown-linux-gnu"

%struct.Chardev = type { %struct.Object, %struct.QemuMutex, ptr, ptr, ptr, i32, i32, i8, ptr, ptr, [1 x i64] }
%struct.Object = type { ptr, ptr, ptr, i32, ptr }
%struct.QemuMutex = type { %union.pthread_mutex_t, i8 }
%union.pthread_mutex_t = type { %struct.__pthread_mutex_s }
%struct.__pthread_mutex_s = type { i32, i32, i32, i32, i32, i16, i16, %struct.__pthread_internal_list }
%struct.__pthread_internal_list = type { ptr, ptr }

@.str.2 = private unnamed_addr constant [23 x i8] c"../qemu/chardev/char.c\00", align 1
@.str.103 = private unnamed_addr constant [5 x i8] c"func\00", align 1
@__PRETTY_FUNCTION__.qemu_chr_timeout_add_ms = private unnamed_addr constant [72 x i8] c"GSource *qemu_chr_timeout_add_ms(Chardev *, guint, GSourceFunc, void *)\00", align 1

; Function Attrs: nounwind sspstrong uwtable
define dso_local ptr @qemu_chr_timeout_add_ms(ptr noundef %chr, i32 noundef %ms, ptr noundef %func, ptr noundef %private) #0 {
entry:
  %chr.addr = alloca ptr, align 8
  %ms.addr = alloca i32, align 4
  %func.addr = alloca ptr, align 8
  %private.addr = alloca ptr, align 8
  %source = alloca ptr, align 8
  store ptr %chr, ptr %chr.addr, align 8
  store i32 %ms, ptr %ms.addr, align 4
  store ptr %func, ptr %func.addr, align 8
  store ptr %private, ptr %private.addr, align 8
  %0 = load i32, ptr %ms.addr, align 4
  %call = call ptr @g_timeout_source_new(i32 noundef %0)
  store ptr %call, ptr %source, align 8
  %1 = load ptr, ptr %func.addr, align 8
  %tobool = icmp ne ptr %1, null
  br i1 %tobool, label %if.then, label %if.else

if.then:                                          ; preds = %entry
  br label %if.end

if.else:                                          ; preds = %entry
  call void @__assert_fail(ptr noundef @.str.103, ptr noundef @.str.2, i32 noundef 1201, ptr noundef @__PRETTY_FUNCTION__.qemu_chr_timeout_add_ms) #10
  unreachable

if.end:                                           ; preds = %if.then
  %2 = load ptr, ptr %source, align 8
  %3 = load ptr, ptr %func.addr, align 8
  %4 = load ptr, ptr %private.addr, align 8
  call void @g_source_set_callback(ptr noundef %2, ptr noundef %3, ptr noundef %4, ptr noundef null)
  %5 = load ptr, ptr %source, align 8
  %6 = load ptr, ptr %chr.addr, align 8
  %gcontext = getelementptr inbounds %struct.Chardev, ptr %6, i32 0, i32 9
  %7 = load ptr, ptr %gcontext, align 8
  %call1 = call i32 @g_source_attach(ptr noundef %5, ptr noundef %7)
  %8 = load ptr, ptr %source, align 8
  ret ptr %8
}