; Function Attrs: nounwind sspstrong uwtable
define dso_local ptr @qemu_chr_timeout_add_ms(ptr noundef readonly captures(none) %chr, i32 noundef %ms, ptr noundef %func, ptr noundef %private) local_unnamed_addr #0 {
entry:
  %call = tail call ptr @g_timeout_source_new(i32 noundef %ms) #13
  %tobool.not = icmp eq ptr %func, null
  br i1 %tobool.not, label %if.else, label %if.end

if.else:                                          ; preds = %entry
  tail call void @__assert_fail(ptr noundef nonnull @.str.103, ptr noundef nonnull @.str.2, i32 noundef 1201, ptr noundef nonnull @__PRETTY_FUNCTION__.qemu_chr_timeout_add_ms) #14
  unreachable

if.end:                                           ; preds = %entry
  tail call void @g_source_set_callback(ptr noundef %call, ptr noundef nonnull %func, ptr noundef %private, ptr noundef null) #13
  %gcontext = getelementptr inbounds nuw i8, ptr %chr, i64 136
  %0 = load ptr, ptr %gcontext, align 8
  %call1 = tail call i32 @g_source_attach(ptr noundef %call, ptr noundef %0) #13
  ret ptr %call
}